ccopy_reg
_reconstructor
p0
(cnetworkx.classes.graph
Graph
p1
c__builtin__
object
p2
Ntp3
Rp4
(dp5
Vgraph
p6
(dp7
sV_node
p8
(dp9
I359
(dp10
sI141493
(dp11
sI483
(dp12
sI495
(dp13
sI98343
(dp14
sI531
(dp15
sI700
(dp16
sI782
(dp17
sI968
(dp18
sI1114
(dp19
sI1148
(dp20
sI1472
(dp21
sI1615
(dp22
sI1661
(dp23
sI1679
(dp24
sI1956
(dp25
sI1966
(dp26
sI2085
(dp27
sI2097
(dp28
sI2223
(dp29
sI2317
(dp30
sI2524
(dp31
sI2639
(dp32
sI2719
(dp33
sI2755
(dp34
sI2903
(dp35
sI3060
(dp36
sI3075
(dp37
sI3138
(dp38
sI3181
(dp39
sI3362
(dp40
sI3493
(dp41
sI3635
(dp42
sI3647
(dp43
sI3656
(dp44
sI3945
(dp45
sI4138
(dp46
sI4280
(dp47
sI4426
(dp48
sI4450
(dp49
sI4545
(dp50
sI4649
(dp51
sI4774
(dp52
sI5004
(dp53
sI5048
(dp54
sI5240
(dp55
sI5310
(dp56
sI5536
(dp57
sI5587
(dp58
sI6190
(dp59
sI6212
(dp60
sI6326
(dp61
sI6385
(dp62
sI6513
(dp63
sI6625
(dp64
sI7104
(dp65
sI7115
(dp66
sI7484
(dp67
sI7950
(dp68
sI7991
(dp69
sI8006
(dp70
sI8021
(dp71
sI8069
(dp72
sI8216
(dp73
sI8392
(dp74
sI8397
(dp75
sI8433
(dp76
sI8730
(dp77
sI8872
(dp78
sI9026
(dp79
sI9068
(dp80
sI9245
(dp81
sI9408
(dp82
sI9569
(dp83
sI9616
(dp84
sI9936
(dp85
sI10141
(dp86
sI10261
(dp87
sI10320
(dp88
sI10372
(dp89
sI10408
(dp90
sI10819
(dp91
sI11022
(dp92
sI11424
(dp93
sI11628
(dp94
sI11751
(dp95
sI11953
(dp96
sI12066
(dp97
sI12508
(dp98
sI12521
(dp99
sI12612
(dp100
sI12739
(dp101
sI12843
(dp102
sI12882
(dp103
sI13233
(dp104
sI13875
(dp105
sI14199
(dp106
sI14387
(dp107
sI14508
(dp108
sI14648
(dp109
sI14649
(dp110
sI14671
(dp111
sI15306
(dp112
sI15754
(dp113
sI15881
(dp114
sI15896
(dp115
sI15993
(dp116
sI16162
(dp117
sI16166
(dp118
sI16226
(dp119
sI16379
(dp120
sI16475
(dp121
sI16783
(dp122
sI16972
(dp123
sI17008
(dp124
sI17048
(dp125
sI17114
(dp126
sI17187
(dp127
sI17255
(dp128
sI17274
(dp129
sI17293
(dp130
sI17309
(dp131
sI17495
(dp132
sI17553
(dp133
sI17661
(dp134
sI17691
(dp135
sI17801
(dp136
sI17841
(dp137
sI18007
(dp138
sI18137
(dp139
sI18259
(dp140
sI18306
(dp141
sI18310
(dp142
sI18347
(dp143
sI18933
(dp144
sI19207
(dp145
sI19242
(dp146
sI19324
(dp147
sI19388
(dp148
sI20108
(dp149
sI20401
(dp150
sI20601
(dp151
sI20683
(dp152
sI20779
(dp153
sI20811
(dp154
sI21401
(dp155
sI21753
(dp156
sI21778
(dp157
sI21879
(dp158
sI21991
(dp159
sI22077
(dp160
sI22366
(dp161
sI22419
(dp162
sI22705
(dp163
sI22950
(dp164
sI22970
(dp165
sI23053
(dp166
sI23120
(dp167
sI23394
(dp168
sI23410
(dp169
sI23481
(dp170
sI23875
(dp171
sI24077
(dp172
sI24151
(dp173
sI24310
(dp174
sI24321
(dp175
sI24622
(dp176
sI24744
(dp177
sI24770
(dp178
sI24845
(dp179
sI25256
(dp180
sI25310
(dp181
sI25376
(dp182
sI25817
(dp183
sI25979
(dp184
sI26024
(dp185
sI26148
(dp186
sI26226
(dp187
sI26552
(dp188
sI26599
(dp189
sI26836
(dp190
sI26968
(dp191
sI27248
(dp192
sI27292
(dp193
sI27294
(dp194
sI27453
(dp195
sI27765
(dp196
sI27971
(dp197
sI28041
(dp198
sI28073
(dp199
sI28244
(dp200
sI28283
(dp201
sI28513
(dp202
sI28570
(dp203
sI28685
(dp204
sI28726
(dp205
sI28980
(dp206
sI29339
(dp207
sI29453
(dp208
sI29623
(dp209
sI29633
(dp210
sI29746
(dp211
sI29942
(dp212
sI30036
(dp213
sI30050
(dp214
sI30061
(dp215
sI30092
(dp216
sI30196
(dp217
sI30293
(dp218
sI30361
(dp219
sI30520
(dp220
sI30851
(dp221
sI30852
(dp222
sI30947
(dp223
sI31120
(dp224
sI31163
(dp225
sI31216
(dp226
sI31362
(dp227
sI31547
(dp228
sI31988
(dp229
sI32022
(dp230
sI32261
(dp231
sI32275
(dp232
sI32362
(dp233
sI32942
(dp234
sI33266
(dp235
sI33318
(dp236
sI33360
(dp237
sI33374
(dp238
sI33376
(dp239
sI33520
(dp240
sI33631
(dp241
sI33872
(dp242
sI33976
(dp243
sI34043
(dp244
sI34642
(dp245
sI34662
(dp246
sI34750
(dp247
sI34817
(dp248
sI35200
(dp249
sI35463
(dp250
sI35655
(dp251
sI35713
(dp252
sI36093
(dp253
sI36293
(dp254
sI36296
(dp255
sI36308
(dp256
sI36837
(dp257
sI36881
(dp258
sI37182
(dp259
sI37187
(dp260
sI37207
(dp261
sI37801
(dp262
sI37839
(dp263
sI37876
(dp264
sI38012
(dp265
sI38029
(dp266
sI38671
(dp267
sI38851
(dp268
sI39060
(dp269
sI39092
(dp270
sI39440
(dp271
sI39517
(dp272
sI39951
(dp273
sI40240
(dp274
sI40604
(dp275
sI40651
(dp276
sI40675
(dp277
sI41015
(dp278
sI41353
(dp279
sI41667
(dp280
sI41764
(dp281
sI42097
(dp282
sI42779
(dp283
sI43133
(dp284
sI43197
(dp285
sI43385
(dp286
sI43420
(dp287
sI43534
(dp288
sI43535
(dp289
sI43541
(dp290
sI44087
(dp291
sI44326
(dp292
sI44603
(dp293
sI44747
(dp294
sI44855
(dp295
sI45065
(dp296
sI45383
(dp297
sI45596
(dp298
sI45772
(dp299
sI45816
(dp300
sI45930
(dp301
sI46035
(dp302
sI46063
(dp303
sI46074
(dp304
sI46128
(dp305
sI46208
(dp306
sI46268
(dp307
sI46288
(dp308
sI46405
(dp309
sI46550
(dp310
sI46645
(dp311
sI46977
(dp312
sI47048
(dp313
sI47345
(dp314
sI47687
(dp315
sI47708
(dp316
sI47917
(dp317
sI48137
(dp318
sI48184
(dp319
sI48309
(dp320
sI48554
(dp321
sI48668
(dp322
sI48721
(dp323
sI48850
(dp324
sI49208
(dp325
sI49336
(dp326
sI49371
(dp327
sI49602
(dp328
sI49634
(dp329
sI49655
(dp330
sI49886
(dp331
sI50129
(dp332
sI50158
(dp333
sI50511
(dp334
sI50592
(dp335
sI50655
(dp336
sI50712
(dp337
sI50881
(dp338
sI51130
(dp339
sI51176
(dp340
sI51199
(dp341
sI51545
(dp342
sI51652
(dp343
sI51665
(dp344
sI51721
(dp345
sI51733
(dp346
sI52011
(dp347
sI52154
(dp348
sI52199
(dp349
sI52205
(dp350
sI52338
(dp351
sI52363
(dp352
sI52517
(dp353
sI52547
(dp354
sI52703
(dp355
sI52906
(dp356
sI53021
(dp357
sI53087
(dp358
sI53279
(dp359
sI53281
(dp360
sI54013
(dp361
sI54087
(dp362
sI54230
(dp363
sI54557
(dp364
sI54642
(dp365
sI54774
(dp366
sI54848
(dp367
sI55012
(dp368
sI55045
(dp369
sI55069
(dp370
sI55177
(dp371
sI55343
(dp372
sI55505
(dp373
sI55541
(dp374
sI55675
(dp375
sI55748
(dp376
sI56252
(dp377
sI56720
(dp378
sI56759
(dp379
sI56877
(dp380
sI56936
(dp381
sI57182
(dp382
sI57234
(dp383
sI57565
(dp384
sI57603
(dp385
sI58126
(dp386
sI58134
(dp387
sI58264
(dp388
sI58365
(dp389
sI58379
(dp390
sI58736
(dp391
sI59240
(dp392
sI59272
(dp393
sI59417
(dp394
sI59892
(dp395
sI60052
(dp396
sI60169
(dp397
sI60360
(dp398
sI60384
(dp399
sI61100
(dp400
sI61183
(dp401
sI61421
(dp402
sI61504
(dp403
sI61562
(dp404
sI61584
(dp405
sI61944
(dp406
sI62017
(dp407
sI62283
(dp408
sI62319
(dp409
sI62585
(dp410
sI62612
(dp411
sI62727
(dp412
sI62741
(dp413
sI62798
(dp414
sI62841
(dp415
sI62849
(dp416
sI63000
(dp417
sI63009
(dp418
sI63150
(dp419
sI63414
(dp420
sI63416
(dp421
sI63437
(dp422
sI63509
(dp423
sI63538
(dp424
sI63923
(dp425
sI63936
(dp426
sI64241
(dp427
sI64605
(dp428
sI64696
(dp429
sI64855
(dp430
sI64941
(dp431
sI65551
(dp432
sI65626
(dp433
sI65630
(dp434
sI65744
(dp435
sI65778
(dp436
sI65788
(dp437
sI65805
(dp438
sI66451
(dp439
sI66786
(dp440
sI66893
(dp441
sI66933
(dp442
sI67225
(dp443
sI67303
(dp444
sI67478
(dp445
sI67503
(dp446
sI67720
(dp447
sI67856
(dp448
sI67900
(dp449
sI68031
(dp450
sI68518
(dp451
sI68535
(dp452
sI68690
(dp453
sI68831
(dp454
sI68997
(dp455
sI69010
(dp456
sI69139
(dp457
sI69159
(dp458
sI69236
(dp459
sI69317
(dp460
sI69345
(dp461
sI69373
(dp462
sI69520
(dp463
sI69528
(dp464
sI69584
(dp465
sI69605
(dp466
sI69708
(dp467
sI69819
(dp468
sI69855
(dp469
sI69910
(dp470
sI70078
(dp471
sI70156
(dp472
sI70202
(dp473
sI70231
(dp474
sI70312
(dp475
sI70415
(dp476
sI70714
(dp477
sI70775
(dp478
sI70899
(dp479
sI71260
(dp480
sI71355
(dp481
sI71605
(dp482
sI71780
(dp483
sI71809
(dp484
sI72301
(dp485
sI72850
(dp486
sI73017
(dp487
sI73188
(dp488
sI73217
(dp489
sI73221
(dp490
sI73245
(dp491
sI73555
(dp492
sI73580
(dp493
sI73899
(dp494
sI73900
(dp495
sI74053
(dp496
sI74091
(dp497
sI74321
(dp498
sI74593
(dp499
sI74691
(dp500
sI74986
(dp501
sI75162
(dp502
sI75239
(dp503
sI75249
(dp504
sI75403
(dp505
sI75711
(dp506
sI76140
(dp507
sI76194
(dp508
sI76279
(dp509
sI76441
(dp510
sI76456
(dp511
sI76565
(dp512
sI77316
(dp513
sI77329
(dp514
sI77801
(dp515
sI77874
(dp516
sI78176
(dp517
sI78323
(dp518
sI78557
(dp519
sI78833
(dp520
sI78836
(dp521
sI78899
(dp522
sI79010
(dp523
sI79141
(dp524
sI79216
(dp525
sI79615
(dp526
sI79768
(dp527
sI79913
(dp528
sI80020
(dp529
sI80024
(dp530
sI80037
(dp531
sI80205
(dp532
sI80211
(dp533
sI80239
(dp534
sI80453
(dp535
sI80478
(dp536
sI80535
(dp537
sI80790
(dp538
sI80841
(dp539
sI80919
(dp540
sI80986
(dp541
sI81028
(dp542
sI81147
(dp543
sI81163
(dp544
sI81288
(dp545
sI81400
(dp546
sI81674
(dp547
sI81714
(dp548
sI81776
(dp549
sI82544
(dp550
sI82569
(dp551
sI82640
(dp552
sI82672
(dp553
sI82834
(dp554
sI83003
(dp555
sI83027
(dp556
sI83282
(dp557
sI83472
(dp558
sI83757
(dp559
sI84235
(dp560
sI84308
(dp561
sI84392
(dp562
sI84479
(dp563
sI84502
(dp564
sI84599
(dp565
sI84721
(dp566
sI84734
(dp567
sI84905
(dp568
sI85413
(dp569
sI85432
(dp570
sI85463
(dp571
sI85567
(dp572
sI85669
(dp573
sI85740
(dp574
sI85906
(dp575
sI85993
(dp576
sI86033
(dp577
sI86044
(dp578
sI86174
(dp579
sI86341
(dp580
sI86463
(dp581
sI86553
(dp582
sI86567
(dp583
sI86751
(dp584
sI86757
(dp585
sI87059
(dp586
sI87129
(dp587
sI87147
(dp588
sI87281
(dp589
sI87328
(dp590
sI87479
(dp591
sI87516
(dp592
sI87545
(dp593
sI87651
(dp594
sI87837
(dp595
sI87912
(dp596
sI88205
(dp597
sI88215
(dp598
sI88758
(dp599
sI88944
(dp600
sI89207
(dp601
sI89259
(dp602
sI89262
(dp603
sI89324
(dp604
sI89350
(dp605
sI89610
(dp606
sI89631
(dp607
sI89781
(dp608
sI90139
(dp609
sI90148
(dp610
sI90205
(dp611
sI90511
(dp612
sI90697
(dp613
sI91114
(dp614
sI91400
(dp615
sI91422
(dp616
sI91424
(dp617
sI91613
(dp618
sI91680
(dp619
sI91804
(dp620
sI92303
(dp621
sI92339
(dp622
sI92378
(dp623
sI92439
(dp624
sI92614
(dp625
sI92743
(dp626
sI92822
(dp627
sI93147
(dp628
sI93358
(dp629
sI93407
(dp630
sI93529
(dp631
sI93652
(dp632
sI93720
(dp633
sI93732
(dp634
sI94002
(dp635
sI94074
(dp636
sI94799
(dp637
sI94957
(dp638
sI94974
(dp639
sI95145
(dp640
sI95309
(dp641
sI95505
(dp642
sI95567
(dp643
sI95683
(dp644
sI95697
(dp645
sI95914
(dp646
sI95963
(dp647
sI96169
(dp648
sI96309
(dp649
sI96525
(dp650
sI96638
(dp651
sI96696
(dp652
sI97006
(dp653
sI97291
(dp654
sI97471
(dp655
sI97570
(dp656
sI97963
(dp657
sI98139
(dp658
sI98235
(dp659
sI98236
(dp660
sI145281
(dp661
sI113417
(dp662
sI124827
(dp663
sI122269
(dp664
sI140703
(dp665
sI116648
(dp666
sI157118
(dp667
sI123861
(dp668
sI106969
(dp669
sI151401
(dp670
sI143081
(dp671
sI125430
(dp672
sI155127
(dp673
sI159097
(dp674
sI98676
(dp675
sI98682
(dp676
sI99274
(dp677
sI99378
(dp678
sI99423
(dp679
sI99543
(dp680
sI99674
(dp681
sI99829
(dp682
sI100109
(dp683
sI100124
(dp684
sI100272
(dp685
sI100640
(dp686
sI100661
(dp687
sI100771
(dp688
sI100916
(dp689
sI101021
(dp690
sI101045
(dp691
sI101091
(dp692
sI101246
(dp693
sI101423
(dp694
sI101516
(dp695
sI101556
(dp696
sI102057
(dp697
sI102090
(dp698
sI102116
(dp699
sI102379
(dp700
sI102445
(dp701
sI102717
(dp702
sI102742
(dp703
sI102750
(dp704
sI102843
(dp705
sI103123
(dp706
sI103147
(dp707
sI103193
(dp708
sI103500
(dp709
sI103568
(dp710
sI103728
(dp711
sI103813
(dp712
sI104201
(dp713
sI104204
(dp714
sI104910
(dp715
sI105041
(dp716
sI105143
(dp717
sI105333
(dp718
sI105394
(dp719
sI105426
(dp720
sI105850
(dp721
sI106048
(dp722
sI106656
(dp723
sI106755
(dp724
sI106919
(dp725
sI107146
(dp726
sI107214
(dp727
sI107615
(dp728
sI108077
(dp729
sI108152
(dp730
sI108269
(dp731
sI108386
(dp732
sI108538
(dp733
sI108874
(dp734
sI108961
(dp735
sI108994
(dp736
sI109495
(dp737
sI109668
(dp738
sI109678
(dp739
sI109835
(dp740
sI110198
(dp741
sI110249
(dp742
sI110326
(dp743
sI110490
(dp744
sI110491
(dp745
sI110498
(dp746
sI111252
(dp747
sI111514
(dp748
sI111532
(dp749
sI111738
(dp750
sI112252
(dp751
sI112414
(dp752
sI112962
(dp753
sI113066
(dp754
sI113098
(dp755
sI113194
(dp756
sI113201
(dp757
sI113359
(dp758
sI113622
(dp759
sI113845
(dp760
sI114046
(dp761
sI114099
(dp762
sI114240
(dp763
sI114265
(dp764
sI114395
(dp765
sI114483
(dp766
sI114739
(dp767
sI114746
(dp768
sI114819
(dp769
sI115024
(dp770
sI115045
(dp771
sI115048
(dp772
sI115547
(dp773
sI115864
(dp774
sI115865
(dp775
sI116258
(dp776
sI116822
(dp777
sI116876
(dp778
sI116900
(dp779
sI116920
(dp780
sI117234
(dp781
sI117239
(dp782
sI117335
(dp783
sI117377
(dp784
sI117504
(dp785
sI117962
(dp786
sI118233
(dp787
sI118462
(dp788
sI118661
(dp789
sI118951
(dp790
sI119034
(dp791
sI119139
(dp792
sI119259
(dp793
sI119292
(dp794
sI119611
(dp795
sI119709
(dp796
sI119742
(dp797
sI119949
(dp798
sI119964
(dp799
sI119980
(dp800
sI120136
(dp801
sI120323
(dp802
sI120398
(dp803
sI120496
(dp804
sI120774
(dp805
sI121237
(dp806
sI121282
(dp807
sI121294
(dp808
sI121335
(dp809
sI121705
(dp810
sI121877
(dp811
sI121880
(dp812
sI122041
(dp813
sI122186
(dp814
sI122526
(dp815
sI122722
(dp816
sI122741
(dp817
sI123157
(dp818
sI123274
(dp819
sI123287
(dp820
sI124055
(dp821
sI124061
(dp822
sI124065
(dp823
sI124137
(dp824
sI124323
(dp825
sI125024
(dp826
sI125044
(dp827
sI125144
(dp828
sI125269
(dp829
sI125348
(dp830
sI125444
(dp831
sI126790
(dp832
sI127055
(dp833
sI127086
(dp834
sI127674
(dp835
sI127721
(dp836
sI128199
(dp837
sI128440
(dp838
sI129564
(dp839
sI129570
(dp840
sI129805
(dp841
sI129849
(dp842
sI129869
(dp843
sI129948
(dp844
sI131023
(dp845
sI131033
(dp846
sI131058
(dp847
sI131116
(dp848
sI131128
(dp849
sI131192
(dp850
sI131397
(dp851
sI131584
(dp852
sI131812
(dp853
sI132505
(dp854
sI132646
(dp855
sI132818
(dp856
sI132858
(dp857
sI133012
(dp858
sI133388
(dp859
sI133488
(dp860
sI133636
(dp861
sI133737
(dp862
sI133775
(dp863
sI133924
(dp864
sI134246
(dp865
sI134296
(dp866
sI134317
(dp867
sI134332
(dp868
sI134405
(dp869
sI134468
(dp870
sI134666
(dp871
sI134690
(dp872
sI134952
(dp873
sI135105
(dp874
sI135261
(dp875
sI135417
(dp876
sI135638
(dp877
sI135656
(dp878
sI136249
(dp879
sI136365
(dp880
sI136561
(dp881
sI136653
(dp882
sI136670
(dp883
sI136819
(dp884
sI137126
(dp885
sI137406
(dp886
sI137445
(dp887
sI137623
(dp888
sI137945
(dp889
sI138216
(dp890
sI138305
(dp891
sI139202
(dp892
sI139226
(dp893
sI139505
(dp894
sI140033
(dp895
sI140117
(dp896
sI140204
(dp897
sI140327
(dp898
sI140427
(dp899
sI140650
(dp900
sI140674
(dp901
sI140905
(dp902
sI140935
(dp903
sI141308
(dp904
sI165909
(dp905
sI149536
(dp906
sI157744
(dp907
sI165936
(dp908
sI155787
(dp909
sI143503
(dp910
sI159899
(dp911
sI168096
(dp912
sI153763
(dp913
sI145573
(dp914
sI143544
(dp915
sI141509
(dp916
sI151799
(dp917
sI141565
(dp918
sI145708
(dp919
sI147773
(dp920
sI166230
(dp921
sI149952
(dp922
sI160213
(dp923
sI162270
(dp924
sI158189
(dp925
sI145911
(dp926
sI152066
(dp927
sI152079
(dp928
sI143890
(dp929
sI166419
(dp930
sI145941
(dp931
sI152100
(dp932
sI150079
(dp933
sI164441
(dp934
sI156265
(dp935
sI141930
(dp936
sI164477
(dp937
sI148128
(dp938
sI164528
(dp939
sI142017
(dp940
sI156357
(dp941
sI144078
(dp942
sI146151
(dp943
sI146188
(dp944
sI144193
(dp945
sI156481
(dp946
sI156488
(dp947
sI166734
(dp948
sI164688
(dp949
sI164714
(dp950
sI144247
(dp951
sI158608
(dp952
sI152481
(dp953
sI156615
(dp954
sI144342
(dp955
sI158691
(dp956
sI154601
(dp957
sI142328
(dp958
sI162808
(dp959
sI154640
(dp960
sI160823
(dp961
sI150604
(dp962
sI164941
(dp963
sI142420
(dp964
sI162929
(dp965
sI142502
(dp966
sI154805
(dp967
sI150721
(dp968
sI142565
(dp969
sI152826
(dp970
sI156944
(dp971
sI148757
(dp972
sI157006
(dp973
sI161140
(dp974
sI150905
(dp975
sI161249
(dp976
sI161267
(dp977
sI146937
(dp978
sI144898
(dp979
sI142851
(dp980
sI161309
(dp981
sI155216
(dp982
sI163428
(dp983
sI165482
(dp984
sI151154
(dp985
sI151158
(dp986
sI149150
(dp987
sI163487
(dp988
sI151216
(dp989
sI151230
(dp990
sI167619
(dp991
sI149215
(dp992
sI165601
(dp993
sI161515
(dp994
sI155389
(dp995
sI153354
(dp996
sI149299
(dp997
sI167736
(dp998
sI155464
(dp999
sI167804
(dp1000
sI157585
(dp1001
sI151453
(dp1002
sI167840
(dp1003
sI165831
(dp1004
sI145357
(dp1005
sI167917
(dp1006
ssV_adj
p1007
(dp1008
I359
(dp1009
I141493
(dp1010
ssI141493
(dp1011
I359
g1010
sI483
(dp1012
sI531
(dp1013
sI700
(dp1014
sI782
(dp1015
sI968
(dp1016
sI1114
(dp1017
sI1148
(dp1018
sI1472
(dp1019
sI1615
(dp1020
sI1661
(dp1021
sI1956
(dp1022
sI1966
(dp1023
sI2085
(dp1024
sI2097
(dp1025
sI2223
(dp1026
sI2317
(dp1027
sI2524
(dp1028
sI2639
(dp1029
sI2719
(dp1030
sI2755
(dp1031
sI2903
(dp1032
sI3060
(dp1033
sI3075
(dp1034
sI3138
(dp1035
sI3362
(dp1036
sI3493
(dp1037
sI3647
(dp1038
sI3656
(dp1039
sI3945
(dp1040
sI4138
(dp1041
sI4280
(dp1042
sI4426
(dp1043
sI4450
(dp1044
sI4545
(dp1045
sI4649
(dp1046
sI4774
(dp1047
sI5004
(dp1048
sI5048
(dp1049
sI5240
(dp1050
sI5310
(dp1051
sI5536
(dp1052
sI5587
(dp1053
sI6190
(dp1054
sI6212
(dp1055
sI6326
(dp1056
sI6385
(dp1057
sI6513
(dp1058
sI6625
(dp1059
sI7104
(dp1060
sI7115
(dp1061
sI7484
(dp1062
sI7950
(dp1063
sI7991
(dp1064
sI8006
(dp1065
sI8021
(dp1066
sI8069
(dp1067
sI8216
(dp1068
sI8392
(dp1069
sI8397
(dp1070
sI8433
(dp1071
sI8730
(dp1072
sI8872
(dp1073
sI9026
(dp1074
sI9068
(dp1075
sI9245
(dp1076
sI9408
(dp1077
sI9569
(dp1078
sI9616
(dp1079
sI9936
(dp1080
sI10141
(dp1081
sI10261
(dp1082
sI10320
(dp1083
sI10372
(dp1084
sI10819
(dp1085
sI11022
(dp1086
sI11424
(dp1087
sI11628
(dp1088
sI11751
(dp1089
sI11953
(dp1090
sI12066
(dp1091
sI12508
(dp1092
sI12521
(dp1093
sI12612
(dp1094
sI12739
(dp1095
sI12843
(dp1096
sI12882
(dp1097
sI13233
(dp1098
sI13875
(dp1099
sI14199
(dp1100
sI14387
(dp1101
sI14508
(dp1102
sI14648
(dp1103
sI14649
(dp1104
sI14671
(dp1105
sI15306
(dp1106
sI15754
(dp1107
sI15881
(dp1108
sI15896
(dp1109
sI15993
(dp1110
sI16162
(dp1111
sI16166
(dp1112
sI16226
(dp1113
sI16379
(dp1114
sI16475
(dp1115
sI16972
(dp1116
sI17008
(dp1117
sI17048
(dp1118
sI17114
(dp1119
sI17187
(dp1120
sI17255
(dp1121
sI17274
(dp1122
sI17293
(dp1123
sI17309
(dp1124
sI17495
(dp1125
sI17553
(dp1126
sI17661
(dp1127
sI17691
(dp1128
sI17801
(dp1129
sI17841
(dp1130
sI18007
(dp1131
sI18137
(dp1132
sI18259
(dp1133
sI18306
(dp1134
sI18310
(dp1135
sI18347
(dp1136
sI18933
(dp1137
sI19207
(dp1138
sI19242
(dp1139
sI19324
(dp1140
sI19388
(dp1141
sI20108
(dp1142
sI20401
(dp1143
sI20601
(dp1144
sI20683
(dp1145
sI20779
(dp1146
sI20811
(dp1147
sI21401
(dp1148
sI21753
(dp1149
sI21778
(dp1150
sI21879
(dp1151
sI21991
(dp1152
sI22077
(dp1153
sI22366
(dp1154
sI22419
(dp1155
sI22705
(dp1156
sI22950
(dp1157
sI22970
(dp1158
sI23053
(dp1159
sI23120
(dp1160
sI23394
(dp1161
sI23410
(dp1162
sI23481
(dp1163
sI23875
(dp1164
sI24077
(dp1165
sI24151
(dp1166
sI24310
(dp1167
sI24321
(dp1168
sI24622
(dp1169
sI24744
(dp1170
sI24770
(dp1171
sI24845
(dp1172
sI25256
(dp1173
sI25310
(dp1174
sI25376
(dp1175
sI25817
(dp1176
sI25979
(dp1177
sI26024
(dp1178
sI26148
(dp1179
sI26226
(dp1180
sI26552
(dp1181
sI26599
(dp1182
sI26836
(dp1183
sI26968
(dp1184
sI27248
(dp1185
sI27292
(dp1186
sI27294
(dp1187
sI27453
(dp1188
sI27765
(dp1189
sI27971
(dp1190
sI28041
(dp1191
sI28073
(dp1192
sI28244
(dp1193
sI28283
(dp1194
sI28513
(dp1195
sI28570
(dp1196
sI28685
(dp1197
sI28726
(dp1198
sI28980
(dp1199
sI29339
(dp1200
sI29453
(dp1201
sI29623
(dp1202
sI29633
(dp1203
sI29746
(dp1204
sI29942
(dp1205
sI30036
(dp1206
sI30050
(dp1207
sI30061
(dp1208
sI30092
(dp1209
sI30196
(dp1210
sI30293
(dp1211
sI30361
(dp1212
sI30851
(dp1213
sI30852
(dp1214
sI30947
(dp1215
sI31120
(dp1216
sI31163
(dp1217
sI31216
(dp1218
sI31362
(dp1219
sI31547
(dp1220
sI31988
(dp1221
sI32022
(dp1222
sI32261
(dp1223
sI32275
(dp1224
sI32362
(dp1225
sI32942
(dp1226
sI33266
(dp1227
sI33318
(dp1228
sI33360
(dp1229
sI33374
(dp1230
sI33376
(dp1231
sI33520
(dp1232
sI33631
(dp1233
sI33872
(dp1234
sI33976
(dp1235
sI34043
(dp1236
sI34642
(dp1237
sI34662
(dp1238
sI34750
(dp1239
sI34817
(dp1240
sI35200
(dp1241
sI35463
(dp1242
sI35655
(dp1243
sI35713
(dp1244
sI36093
(dp1245
sI36293
(dp1246
sI36296
(dp1247
sI36308
(dp1248
sI36837
(dp1249
sI36881
(dp1250
sI37182
(dp1251
sI37187
(dp1252
sI37207
(dp1253
sI37801
(dp1254
sI37839
(dp1255
sI37876
(dp1256
sI38012
(dp1257
sI38029
(dp1258
sI38671
(dp1259
sI38851
(dp1260
sI39060
(dp1261
sI39092
(dp1262
sI39440
(dp1263
sI39517
(dp1264
sI39951
(dp1265
sI40240
(dp1266
sI40604
(dp1267
sI40651
(dp1268
sI41015
(dp1269
sI41353
(dp1270
sI41667
(dp1271
sI41764
(dp1272
sI42097
(dp1273
sI42779
(dp1274
sI43133
(dp1275
sI43197
(dp1276
sI43385
(dp1277
sI43420
(dp1278
sI43534
(dp1279
sI43535
(dp1280
sI43541
(dp1281
sI44087
(dp1282
sI44603
(dp1283
sI44747
(dp1284
sI44855
(dp1285
sI45065
(dp1286
sI45383
(dp1287
sI45596
(dp1288
sI45772
(dp1289
sI45816
(dp1290
sI45930
(dp1291
sI46035
(dp1292
sI46063
(dp1293
sI46074
(dp1294
sI46128
(dp1295
sI46208
(dp1296
sI46268
(dp1297
sI46288
(dp1298
sI46405
(dp1299
sI46550
(dp1300
sI46645
(dp1301
sI46977
(dp1302
sI47048
(dp1303
sI47345
(dp1304
sI47687
(dp1305
sI47708
(dp1306
sI47917
(dp1307
sI48137
(dp1308
sI48184
(dp1309
sI48309
(dp1310
sI48554
(dp1311
sI48668
(dp1312
sI48721
(dp1313
sI49208
(dp1314
sI49336
(dp1315
sI49371
(dp1316
sI49602
(dp1317
sI49634
(dp1318
sI49655
(dp1319
sI49886
(dp1320
sI50129
(dp1321
sI50158
(dp1322
sI50511
(dp1323
sI50592
(dp1324
sI50655
(dp1325
sI50712
(dp1326
sI50881
(dp1327
sI51130
(dp1328
sI51176
(dp1329
sI51199
(dp1330
sI51545
(dp1331
sI51652
(dp1332
sI51665
(dp1333
sI51721
(dp1334
sI51733
(dp1335
sI52011
(dp1336
sI52154
(dp1337
sI52199
(dp1338
sI52205
(dp1339
sI52338
(dp1340
sI52363
(dp1341
sI52517
(dp1342
sI52547
(dp1343
sI52703
(dp1344
sI52906
(dp1345
sI53021
(dp1346
sI53087
(dp1347
sI53279
(dp1348
sI53281
(dp1349
sI54013
(dp1350
sI54087
(dp1351
sI54557
(dp1352
sI54642
(dp1353
sI54774
(dp1354
sI54848
(dp1355
sI55012
(dp1356
sI55045
(dp1357
sI55069
(dp1358
sI55177
(dp1359
sI55343
(dp1360
sI55505
(dp1361
sI55541
(dp1362
sI55675
(dp1363
sI55748
(dp1364
sI56252
(dp1365
sI56720
(dp1366
sI56759
(dp1367
sI56877
(dp1368
sI56936
(dp1369
sI57182
(dp1370
sI57234
(dp1371
sI57565
(dp1372
sI57603
(dp1373
sI58126
(dp1374
sI58134
(dp1375
sI58264
(dp1376
sI58365
(dp1377
sI58379
(dp1378
sI59240
(dp1379
sI59272
(dp1380
sI59417
(dp1381
sI60052
(dp1382
sI60169
(dp1383
sI60360
(dp1384
sI60384
(dp1385
sI61100
(dp1386
sI61183
(dp1387
sI61421
(dp1388
sI61504
(dp1389
sI61562
(dp1390
sI61584
(dp1391
sI61944
(dp1392
sI62017
(dp1393
sI62283
(dp1394
sI62319
(dp1395
sI62585
(dp1396
sI62612
(dp1397
sI62727
(dp1398
sI62741
(dp1399
sI62798
(dp1400
sI62841
(dp1401
sI62849
(dp1402
sI63000
(dp1403
sI63009
(dp1404
sI63414
(dp1405
sI63416
(dp1406
sI63437
(dp1407
sI63509
(dp1408
sI63538
(dp1409
sI63923
(dp1410
sI63936
(dp1411
sI64241
(dp1412
sI64605
(dp1413
sI64696
(dp1414
sI64855
(dp1415
sI64941
(dp1416
sI65551
(dp1417
sI65626
(dp1418
sI65630
(dp1419
sI65744
(dp1420
sI65778
(dp1421
sI65788
(dp1422
sI65805
(dp1423
sI66451
(dp1424
sI66786
(dp1425
sI66933
(dp1426
sI67225
(dp1427
sI67303
(dp1428
sI67478
(dp1429
sI67503
(dp1430
sI67720
(dp1431
sI67856
(dp1432
sI67900
(dp1433
sI68031
(dp1434
sI68518
(dp1435
sI68535
(dp1436
sI68690
(dp1437
sI68831
(dp1438
sI68997
(dp1439
sI69010
(dp1440
sI69139
(dp1441
sI69159
(dp1442
sI69236
(dp1443
sI69317
(dp1444
sI69345
(dp1445
sI69373
(dp1446
sI69520
(dp1447
sI69528
(dp1448
sI69584
(dp1449
sI69605
(dp1450
sI69708
(dp1451
sI69819
(dp1452
sI69855
(dp1453
sI69910
(dp1454
sI70078
(dp1455
sI70156
(dp1456
sI70202
(dp1457
sI70231
(dp1458
sI70312
(dp1459
sI70415
(dp1460
sI70714
(dp1461
sI70775
(dp1462
sI70899
(dp1463
sI71260
(dp1464
sI71355
(dp1465
sI71605
(dp1466
sI71780
(dp1467
sI71809
(dp1468
sI72301
(dp1469
sI72850
(dp1470
sI73017
(dp1471
sI73188
(dp1472
sI73217
(dp1473
sI73221
(dp1474
sI73245
(dp1475
sI73555
(dp1476
sI73580
(dp1477
sI73899
(dp1478
sI73900
(dp1479
sI74053
(dp1480
sI74091
(dp1481
sI74321
(dp1482
sI74593
(dp1483
sI74691
(dp1484
sI74986
(dp1485
sI75162
(dp1486
sI75239
(dp1487
sI75249
(dp1488
sI75711
(dp1489
sI76140
(dp1490
sI76194
(dp1491
sI76279
(dp1492
sI76441
(dp1493
sI76456
(dp1494
sI76565
(dp1495
sI77316
(dp1496
sI77329
(dp1497
sI77801
(dp1498
sI77874
(dp1499
sI78176
(dp1500
sI78323
(dp1501
sI78557
(dp1502
sI78833
(dp1503
sI78836
(dp1504
sI79010
(dp1505
sI79141
(dp1506
sI79216
(dp1507
sI79615
(dp1508
sI79768
(dp1509
sI79913
(dp1510
sI80020
(dp1511
sI80024
(dp1512
sI80037
(dp1513
sI80205
(dp1514
sI80211
(dp1515
sI80239
(dp1516
sI80453
(dp1517
sI80478
(dp1518
sI80535
(dp1519
sI80790
(dp1520
sI80841
(dp1521
sI80919
(dp1522
sI80986
(dp1523
sI81028
(dp1524
sI81147
(dp1525
sI81163
(dp1526
sI81288
(dp1527
sI81400
(dp1528
sI81674
(dp1529
sI81714
(dp1530
sI81776
(dp1531
sI82544
(dp1532
sI82569
(dp1533
sI82640
(dp1534
sI82672
(dp1535
sI82834
(dp1536
sI83003
(dp1537
sI83027
(dp1538
sI83282
(dp1539
sI83472
(dp1540
sI83757
(dp1541
sI84235
(dp1542
sI84308
(dp1543
sI84392
(dp1544
sI84479
(dp1545
sI84502
(dp1546
sI84599
(dp1547
sI84721
(dp1548
sI84734
(dp1549
sI84905
(dp1550
sI85413
(dp1551
sI85432
(dp1552
sI85463
(dp1553
sI85567
(dp1554
sI85669
(dp1555
sI85740
(dp1556
sI85906
(dp1557
sI85993
(dp1558
sI86033
(dp1559
sI86044
(dp1560
sI86174
(dp1561
sI86341
(dp1562
sI86463
(dp1563
sI86553
(dp1564
sI86567
(dp1565
sI86751
(dp1566
sI86757
(dp1567
sI87059
(dp1568
sI87129
(dp1569
sI87147
(dp1570
sI87281
(dp1571
sI87328
(dp1572
sI87479
(dp1573
sI87545
(dp1574
sI87651
(dp1575
sI87837
(dp1576
sI87912
(dp1577
sI88205
(dp1578
sI88215
(dp1579
sI88758
(dp1580
sI88944
(dp1581
sI89207
(dp1582
sI89259
(dp1583
sI89262
(dp1584
sI89324
(dp1585
sI89350
(dp1586
sI89610
(dp1587
sI89631
(dp1588
sI89781
(dp1589
sI90139
(dp1590
sI90148
(dp1591
sI90205
(dp1592
sI90511
(dp1593
sI91114
(dp1594
sI91400
(dp1595
sI91422
(dp1596
sI91424
(dp1597
sI91613
(dp1598
sI91680
(dp1599
sI91804
(dp1600
sI92303
(dp1601
sI92339
(dp1602
sI92378
(dp1603
sI92439
(dp1604
sI92614
(dp1605
sI92743
(dp1606
sI92822
(dp1607
sI93147
(dp1608
sI93358
(dp1609
sI93407
(dp1610
sI93529
(dp1611
sI93652
(dp1612
sI93720
(dp1613
sI93732
(dp1614
sI94002
(dp1615
sI94074
(dp1616
sI94799
(dp1617
sI94957
(dp1618
sI94974
(dp1619
sI95145
(dp1620
sI95309
(dp1621
sI95505
(dp1622
sI95567
(dp1623
sI95683
(dp1624
sI95963
(dp1625
sI96169
(dp1626
sI96309
(dp1627
sI96525
(dp1628
sI96638
(dp1629
sI96696
(dp1630
sI97006
(dp1631
sI97291
(dp1632
sI97471
(dp1633
sI97570
(dp1634
sI97963
(dp1635
sI98139
(dp1636
sI98235
(dp1637
sI98236
(dp1638
sI98343
(dp1639
sI98676
(dp1640
sI98682
(dp1641
sI99274
(dp1642
sI99378
(dp1643
sI99423
(dp1644
sI99543
(dp1645
sI99674
(dp1646
sI99829
(dp1647
sI100109
(dp1648
sI100124
(dp1649
sI100272
(dp1650
sI100640
(dp1651
sI100661
(dp1652
sI100771
(dp1653
sI100916
(dp1654
sI101021
(dp1655
sI101045
(dp1656
sI101091
(dp1657
sI101246
(dp1658
sI101423
(dp1659
sI101516
(dp1660
sI101556
(dp1661
sI102057
(dp1662
sI102090
(dp1663
sI102116
(dp1664
sI102379
(dp1665
sI102445
(dp1666
sI102717
(dp1667
sI102742
(dp1668
sI102750
(dp1669
sI102843
(dp1670
sI103123
(dp1671
sI103147
(dp1672
sI103193
(dp1673
sI103500
(dp1674
sI103568
(dp1675
sI103728
(dp1676
sI103813
(dp1677
sI104201
(dp1678
sI104204
(dp1679
sI104910
(dp1680
sI105041
(dp1681
sI105143
(dp1682
sI105333
(dp1683
sI105394
(dp1684
sI105426
(dp1685
sI105850
(dp1686
sI106048
(dp1687
sI106656
(dp1688
sI106755
(dp1689
sI106919
(dp1690
sI107146
(dp1691
sI107214
(dp1692
sI107615
(dp1693
sI108077
(dp1694
sI108152
(dp1695
sI108269
(dp1696
sI108386
(dp1697
sI108538
(dp1698
sI108874
(dp1699
sI108961
(dp1700
sI108994
(dp1701
sI109495
(dp1702
sI109668
(dp1703
sI109678
(dp1704
sI109835
(dp1705
sI110198
(dp1706
sI110249
(dp1707
sI110326
(dp1708
sI110490
(dp1709
sI110491
(dp1710
sI110498
(dp1711
sI111252
(dp1712
sI111514
(dp1713
sI111532
(dp1714
sI111738
(dp1715
sI112252
(dp1716
sI112414
(dp1717
sI112962
(dp1718
sI113066
(dp1719
sI113098
(dp1720
sI113194
(dp1721
sI113201
(dp1722
sI113359
(dp1723
sI113622
(dp1724
sI113845
(dp1725
sI114046
(dp1726
sI114099
(dp1727
sI114240
(dp1728
sI114265
(dp1729
sI114395
(dp1730
sI114483
(dp1731
sI114739
(dp1732
sI114746
(dp1733
sI114819
(dp1734
sI115024
(dp1735
sI115045
(dp1736
sI115048
(dp1737
sI115547
(dp1738
sI115864
(dp1739
sI115865
(dp1740
sI116258
(dp1741
sI116822
(dp1742
sI116876
(dp1743
sI116900
(dp1744
sI116920
(dp1745
sI117234
(dp1746
sI117239
(dp1747
sI117335
(dp1748
sI117377
(dp1749
sI117504
(dp1750
sI117962
(dp1751
sI118233
(dp1752
sI118462
(dp1753
sI118661
(dp1754
sI118951
(dp1755
sI119034
(dp1756
sI119139
(dp1757
sI119259
(dp1758
sI119292
(dp1759
sI119611
(dp1760
sI119709
(dp1761
sI119742
(dp1762
sI119949
(dp1763
sI119964
(dp1764
sI119980
(dp1765
sI120136
(dp1766
sI120323
(dp1767
sI120398
(dp1768
sI120496
(dp1769
sI120774
(dp1770
sI121237
(dp1771
sI121282
(dp1772
sI121294
(dp1773
sI121335
(dp1774
sI121705
(dp1775
sI121877
(dp1776
sI121880
(dp1777
sI122041
(dp1778
sI122186
(dp1779
sI122526
(dp1780
sI122722
(dp1781
sI122741
(dp1782
sI123157
(dp1783
sI123274
(dp1784
sI123287
(dp1785
sI124055
(dp1786
sI124061
(dp1787
sI124065
(dp1788
sI124137
(dp1789
sI124323
(dp1790
sI125024
(dp1791
sI125044
(dp1792
sI125144
(dp1793
sI125269
(dp1794
sI125348
(dp1795
sI125444
(dp1796
sI126790
(dp1797
sI127055
(dp1798
sI127086
(dp1799
sI127674
(dp1800
sI127721
(dp1801
sI128199
(dp1802
sI128440
(dp1803
sI129564
(dp1804
sI129570
(dp1805
sI129805
(dp1806
sI129849
(dp1807
sI129869
(dp1808
sI129948
(dp1809
sI131023
(dp1810
sI131033
(dp1811
sI131058
(dp1812
sI131116
(dp1813
sI131128
(dp1814
sI131192
(dp1815
sI131397
(dp1816
sI131584
(dp1817
sI131812
(dp1818
sI132505
(dp1819
sI132646
(dp1820
sI132818
(dp1821
sI132858
(dp1822
sI133012
(dp1823
sI133388
(dp1824
sI133488
(dp1825
sI133636
(dp1826
sI133737
(dp1827
sI133775
(dp1828
sI133924
(dp1829
sI134246
(dp1830
sI134296
(dp1831
sI134317
(dp1832
sI134332
(dp1833
sI134405
(dp1834
sI134468
(dp1835
sI134666
(dp1836
sI134690
(dp1837
sI134952
(dp1838
sI135105
(dp1839
sI135261
(dp1840
sI135417
(dp1841
sI135638
(dp1842
sI135656
(dp1843
sI136249
(dp1844
sI136365
(dp1845
sI136561
(dp1846
sI136653
(dp1847
sI136670
(dp1848
sI136819
(dp1849
sI137126
(dp1850
sI137406
(dp1851
sI137445
(dp1852
sI137623
(dp1853
sI137945
(dp1854
sI138216
(dp1855
sI138305
(dp1856
sI139202
(dp1857
sI139226
(dp1858
sI139505
(dp1859
sI140033
(dp1860
sI140117
(dp1861
sI140204
(dp1862
sI140327
(dp1863
sI140427
(dp1864
sI140650
(dp1865
sI140674
(dp1866
sI140905
(dp1867
sI140935
(dp1868
sI141308
(dp1869
sI165909
(dp1870
sI149536
(dp1871
sI157744
(dp1872
sI165936
(dp1873
sI155787
(dp1874
sI143503
(dp1875
sI159899
(dp1876
sI168096
(dp1877
sI153763
(dp1878
sI145573
(dp1879
sI143544
(dp1880
sI141509
(dp1881
sI151799
(dp1882
sI141565
(dp1883
sI145708
(dp1884
sI147773
(dp1885
sI166230
(dp1886
sI149952
(dp1887
sI160213
(dp1888
sI162270
(dp1889
sI158189
(dp1890
sI145911
(dp1891
sI152066
(dp1892
sI152079
(dp1893
sI143890
(dp1894
sI166419
(dp1895
sI145941
(dp1896
sI152100
(dp1897
sI150079
(dp1898
sI164441
(dp1899
sI156265
(dp1900
sI141930
(dp1901
sI164477
(dp1902
sI148128
(dp1903
sI164528
(dp1904
sI142017
(dp1905
sI156357
(dp1906
sI144078
(dp1907
sI146151
(dp1908
sI146188
(dp1909
sI144193
(dp1910
sI156481
(dp1911
sI156488
(dp1912
sI166734
(dp1913
sI164688
(dp1914
sI164714
(dp1915
sI144247
(dp1916
sI158608
(dp1917
sI152481
(dp1918
sI156615
(dp1919
sI144342
(dp1920
sI158691
(dp1921
sI154601
(dp1922
sI142328
(dp1923
sI162808
(dp1924
sI154640
(dp1925
sI160823
(dp1926
sI150604
(dp1927
sI164941
(dp1928
sI142420
(dp1929
sI162929
(dp1930
sI142502
(dp1931
sI154805
(dp1932
sI150721
(dp1933
sI142565
(dp1934
sI152826
(dp1935
sI156944
(dp1936
sI148757
(dp1937
sI157006
(dp1938
sI161140
(dp1939
sI150905
(dp1940
sI161249
(dp1941
sI161267
(dp1942
sI146937
(dp1943
sI144898
(dp1944
sI142851
(dp1945
sI161309
(dp1946
sI155216
(dp1947
sI163428
(dp1948
sI165482
(dp1949
sI151154
(dp1950
sI151158
(dp1951
sI149150
(dp1952
sI163487
(dp1953
sI151216
(dp1954
sI151230
(dp1955
sI167619
(dp1956
sI149215
(dp1957
sI165601
(dp1958
sI161515
(dp1959
sI155389
(dp1960
sI153354
(dp1961
sI149299
(dp1962
sI167736
(dp1963
sI155464
(dp1964
sI167804
(dp1965
sI157585
(dp1966
sI151453
(dp1967
sI167840
(dp1968
sI165831
(dp1969
sI145357
(dp1970
sI167917
(dp1971
ssI483
(dp1972
I141493
g1012
ssI495
(dp1973
I98343
(dp1974
ssI98343
(dp1975
I495
g1974
sI1679
(dp1976
sI3181
(dp1977
sI3635
(dp1978
sI10372
(dp1979
sI10408
(dp1980
sI16783
(dp1981
sI30520
(dp1982
sI40675
(dp1983
sI44326
(dp1984
sI48850
(dp1985
sI54230
(dp1986
sI58736
(dp1987
sI59892
(dp1988
sI63150
(dp1989
sI66893
(dp1990
sI75403
(dp1991
sI78899
(dp1992
sI87516
(dp1993
sI89631
(dp1994
sI90148
(dp1995
sI90697
(dp1996
sI95697
(dp1997
sI95914
(dp1998
sI145281
(dp1999
sI113417
(dp2000
sI124827
(dp2001
sI122269
(dp2002
sI140703
(dp2003
sI116648
(dp2004
sI141493
g1639
sI157118
(dp2005
sI123861
(dp2006
sI106969
(dp2007
sI151401
(dp2008
sI143081
(dp2009
sI125430
(dp2010
sI155127
(dp2011
sI159097
(dp2012
ssI531
(dp2013
I141493
g1013
ssI700
(dp2014
I141493
g1014
ssI782
(dp2015
I141493
g1015
ssI968
(dp2016
I141493
g1016
ssI1114
(dp2017
I141493
g1017
ssI1148
(dp2018
I141493
g1018
ssI1472
(dp2019
I141493
g1019
ssI1615
(dp2020
I141493
g1020
ssI1661
(dp2021
I141493
g1021
ssI1679
(dp2022
I98343
g1976
ssI1956
(dp2023
I141493
g1022
ssI1966
(dp2024
I141493
g1023
ssI2085
(dp2025
I141493
g1024
ssI2097
(dp2026
I141493
g1025
ssI2223
(dp2027
I141493
g1026
ssI2317
(dp2028
I141493
g1027
ssI2524
(dp2029
I141493
g1028
ssI2639
(dp2030
I141493
g1029
ssI2719
(dp2031
I141493
g1030
ssI2755
(dp2032
I141493
g1031
ssI2903
(dp2033
I141493
g1032
ssI3060
(dp2034
I141493
g1033
ssI3075
(dp2035
I141493
g1034
ssI3138
(dp2036
I141493
g1035
ssI3181
(dp2037
I98343
g1977
ssI3362
(dp2038
I141493
g1036
ssI3493
(dp2039
I141493
g1037
ssI3635
(dp2040
I98343
g1978
ssI3647
(dp2041
I141493
g1038
ssI3656
(dp2042
I141493
g1039
ssI3945
(dp2043
I141493
g1040
ssI4138
(dp2044
I141493
g1041
ssI4280
(dp2045
I141493
g1042
ssI4426
(dp2046
I141493
g1043
ssI4450
(dp2047
I141493
g1044
ssI4545
(dp2048
I141493
g1045
ssI4649
(dp2049
I141493
g1046
ssI4774
(dp2050
I141493
g1047
ssI5004
(dp2051
I141493
g1048
ssI5048
(dp2052
I141493
g1049
ssI5240
(dp2053
I141493
g1050
ssI5310
(dp2054
I141493
g1051
ssI5536
(dp2055
I141493
g1052
ssI5587
(dp2056
I141493
g1053
ssI6190
(dp2057
I141493
g1054
ssI6212
(dp2058
I141493
g1055
ssI6326
(dp2059
I141493
g1056
ssI6385
(dp2060
I141493
g1057
ssI6513
(dp2061
I141493
g1058
ssI6625
(dp2062
I141493
g1059
ssI7104
(dp2063
I141493
g1060
ssI7115
(dp2064
I141493
g1061
ssI7484
(dp2065
I141493
g1062
ssI7950
(dp2066
I141493
g1063
ssI7991
(dp2067
I141493
g1064
ssI8006
(dp2068
I141493
g1065
ssI8021
(dp2069
I141493
g1066
ssI8069
(dp2070
I141493
g1067
ssI8216
(dp2071
I141493
g1068
ssI8392
(dp2072
I141493
g1069
ssI8397
(dp2073
I141493
g1070
ssI8433
(dp2074
I141493
g1071
ssI8730
(dp2075
I141493
g1072
ssI8872
(dp2076
I141493
g1073
ssI9026
(dp2077
I141493
g1074
ssI9068
(dp2078
I141493
g1075
ssI9245
(dp2079
I141493
g1076
ssI9408
(dp2080
I141493
g1077
ssI9569
(dp2081
I141493
g1078
ssI9616
(dp2082
I141493
g1079
ssI9936
(dp2083
I141493
g1080
ssI10141
(dp2084
I141493
g1081
ssI10261
(dp2085
I141493
g1082
ssI10320
(dp2086
I141493
g1083
ssI10372
(dp2087
I141493
g1084
sI98343
g1979
ssI10408
(dp2088
I98343
g1980
ssI10819
(dp2089
I141493
g1085
ssI11022
(dp2090
I141493
g1086
ssI11424
(dp2091
I141493
g1087
ssI11628
(dp2092
I141493
g1088
ssI11751
(dp2093
I141493
g1089
ssI11953
(dp2094
I141493
g1090
ssI12066
(dp2095
I141493
g1091
ssI12508
(dp2096
I141493
g1092
ssI12521
(dp2097
I141493
g1093
ssI12612
(dp2098
I141493
g1094
ssI12739
(dp2099
I141493
g1095
ssI12843
(dp2100
I141493
g1096
ssI12882
(dp2101
I141493
g1097
ssI13233
(dp2102
I141493
g1098
ssI13875
(dp2103
I141493
g1099
ssI14199
(dp2104
I141493
g1100
ssI14387
(dp2105
I141493
g1101
ssI14508
(dp2106
I141493
g1102
ssI14648
(dp2107
I141493
g1103
ssI14649
(dp2108
I141493
g1104
ssI14671
(dp2109
I141493
g1105
ssI15306
(dp2110
I141493
g1106
ssI15754
(dp2111
I141493
g1107
ssI15881
(dp2112
I141493
g1108
ssI15896
(dp2113
I141493
g1109
ssI15993
(dp2114
I141493
g1110
ssI16162
(dp2115
I141493
g1111
ssI16166
(dp2116
I141493
g1112
ssI16226
(dp2117
I141493
g1113
ssI16379
(dp2118
I141493
g1114
ssI16475
(dp2119
I141493
g1115
ssI16783
(dp2120
I98343
g1981
ssI16972
(dp2121
I141493
g1116
ssI17008
(dp2122
I141493
g1117
ssI17048
(dp2123
I141493
g1118
ssI17114
(dp2124
I141493
g1119
ssI17187
(dp2125
I141493
g1120
ssI17255
(dp2126
I141493
g1121
ssI17274
(dp2127
I141493
g1122
ssI17293
(dp2128
I141493
g1123
ssI17309
(dp2129
I141493
g1124
ssI17495
(dp2130
I141493
g1125
ssI17553
(dp2131
I141493
g1126
ssI17661
(dp2132
I141493
g1127
ssI17691
(dp2133
I141493
g1128
ssI17801
(dp2134
I141493
g1129
ssI17841
(dp2135
I141493
g1130
ssI18007
(dp2136
I141493
g1131
ssI18137
(dp2137
I141493
g1132
ssI18259
(dp2138
I141493
g1133
ssI18306
(dp2139
I141493
g1134
ssI18310
(dp2140
I141493
g1135
ssI18347
(dp2141
I141493
g1136
ssI18933
(dp2142
I141493
g1137
ssI19207
(dp2143
I141493
g1138
ssI19242
(dp2144
I141493
g1139
ssI19324
(dp2145
I141493
g1140
ssI19388
(dp2146
I141493
g1141
ssI20108
(dp2147
I141493
g1142
ssI20401
(dp2148
I141493
g1143
ssI20601
(dp2149
I141493
g1144
ssI20683
(dp2150
I141493
g1145
ssI20779
(dp2151
I141493
g1146
ssI20811
(dp2152
I141493
g1147
ssI21401
(dp2153
I141493
g1148
ssI21753
(dp2154
I141493
g1149
ssI21778
(dp2155
I141493
g1150
ssI21879
(dp2156
I141493
g1151
ssI21991
(dp2157
I141493
g1152
ssI22077
(dp2158
I141493
g1153
ssI22366
(dp2159
I141493
g1154
ssI22419
(dp2160
I141493
g1155
ssI22705
(dp2161
I141493
g1156
ssI22950
(dp2162
I141493
g1157
ssI22970
(dp2163
I141493
g1158
ssI23053
(dp2164
I141493
g1159
ssI23120
(dp2165
I141493
g1160
ssI23394
(dp2166
I141493
g1161
ssI23410
(dp2167
I141493
g1162
ssI23481
(dp2168
I141493
g1163
ssI23875
(dp2169
I141493
g1164
ssI24077
(dp2170
I141493
g1165
ssI24151
(dp2171
I141493
g1166
ssI24310
(dp2172
I141493
g1167
ssI24321
(dp2173
I141493
g1168
ssI24622
(dp2174
I141493
g1169
ssI24744
(dp2175
I141493
g1170
ssI24770
(dp2176
I141493
g1171
ssI24845
(dp2177
I141493
g1172
ssI25256
(dp2178
I141493
g1173
ssI25310
(dp2179
I141493
g1174
ssI25376
(dp2180
I141493
g1175
ssI25817
(dp2181
I141493
g1176
ssI25979
(dp2182
I141493
g1177
ssI26024
(dp2183
I141493
g1178
ssI26148
(dp2184
I141493
g1179
ssI26226
(dp2185
I141493
g1180
ssI26552
(dp2186
I141493
g1181
ssI26599
(dp2187
I141493
g1182
ssI26836
(dp2188
I141493
g1183
ssI26968
(dp2189
I141493
g1184
ssI27248
(dp2190
I141493
g1185
ssI27292
(dp2191
I141493
g1186
ssI27294
(dp2192
I141493
g1187
ssI27453
(dp2193
I141493
g1188
ssI27765
(dp2194
I141493
g1189
ssI27971
(dp2195
I141493
g1190
ssI28041
(dp2196
I141493
g1191
ssI28073
(dp2197
I141493
g1192
ssI28244
(dp2198
I141493
g1193
ssI28283
(dp2199
I141493
g1194
ssI28513
(dp2200
I141493
g1195
ssI28570
(dp2201
I141493
g1196
ssI28685
(dp2202
I141493
g1197
ssI28726
(dp2203
I141493
g1198
ssI28980
(dp2204
I141493
g1199
ssI29339
(dp2205
I141493
g1200
ssI29453
(dp2206
I141493
g1201
ssI29623
(dp2207
I141493
g1202
ssI29633
(dp2208
I141493
g1203
ssI29746
(dp2209
I141493
g1204
ssI29942
(dp2210
I141493
g1205
ssI30036
(dp2211
I141493
g1206
ssI30050
(dp2212
I141493
g1207
ssI30061
(dp2213
I141493
g1208
ssI30092
(dp2214
I141493
g1209
ssI30196
(dp2215
I141493
g1210
ssI30293
(dp2216
I141493
g1211
ssI30361
(dp2217
I141493
g1212
ssI30520
(dp2218
I98343
g1982
ssI30851
(dp2219
I141493
g1213
ssI30852
(dp2220
I141493
g1214
ssI30947
(dp2221
I141493
g1215
ssI31120
(dp2222
I141493
g1216
ssI31163
(dp2223
I141493
g1217
ssI31216
(dp2224
I141493
g1218
ssI31362
(dp2225
I141493
g1219
ssI31547
(dp2226
I141493
g1220
ssI31988
(dp2227
I141493
g1221
ssI32022
(dp2228
I141493
g1222
ssI32261
(dp2229
I141493
g1223
ssI32275
(dp2230
I141493
g1224
ssI32362
(dp2231
I141493
g1225
ssI32942
(dp2232
I141493
g1226
ssI33266
(dp2233
I141493
g1227
ssI33318
(dp2234
I141493
g1228
ssI33360
(dp2235
I141493
g1229
ssI33374
(dp2236
I141493
g1230
ssI33376
(dp2237
I141493
g1231
ssI33520
(dp2238
I141493
g1232
ssI33631
(dp2239
I141493
g1233
ssI33872
(dp2240
I141493
g1234
ssI33976
(dp2241
I141493
g1235
ssI34043
(dp2242
I141493
g1236
ssI34642
(dp2243
I141493
g1237
ssI34662
(dp2244
I141493
g1238
ssI34750
(dp2245
I141493
g1239
ssI34817
(dp2246
I141493
g1240
ssI35200
(dp2247
I141493
g1241
ssI35463
(dp2248
I141493
g1242
ssI35655
(dp2249
I141493
g1243
ssI35713
(dp2250
I141493
g1244
ssI36093
(dp2251
I141493
g1245
ssI36293
(dp2252
I141493
g1246
ssI36296
(dp2253
I141493
g1247
ssI36308
(dp2254
I141493
g1248
ssI36837
(dp2255
I141493
g1249
ssI36881
(dp2256
I141493
g1250
ssI37182
(dp2257
I141493
g1251
ssI37187
(dp2258
I141493
g1252
ssI37207
(dp2259
I141493
g1253
ssI37801
(dp2260
I141493
g1254
ssI37839
(dp2261
I141493
g1255
ssI37876
(dp2262
I141493
g1256
ssI38012
(dp2263
I141493
g1257
ssI38029
(dp2264
I141493
g1258
ssI38671
(dp2265
I141493
g1259
ssI38851
(dp2266
I141493
g1260
ssI39060
(dp2267
I141493
g1261
ssI39092
(dp2268
I141493
g1262
ssI39440
(dp2269
I141493
g1263
ssI39517
(dp2270
I141493
g1264
ssI39951
(dp2271
I141493
g1265
ssI40240
(dp2272
I141493
g1266
ssI40604
(dp2273
I141493
g1267
ssI40651
(dp2274
I141493
g1268
ssI40675
(dp2275
I98343
g1983
ssI41015
(dp2276
I141493
g1269
ssI41353
(dp2277
I141493
g1270
ssI41667
(dp2278
I141493
g1271
ssI41764
(dp2279
I141493
g1272
ssI42097
(dp2280
I141493
g1273
ssI42779
(dp2281
I141493
g1274
ssI43133
(dp2282
I141493
g1275
ssI43197
(dp2283
I141493
g1276
ssI43385
(dp2284
I141493
g1277
ssI43420
(dp2285
I141493
g1278
ssI43534
(dp2286
I141493
g1279
ssI43535
(dp2287
I141493
g1280
ssI43541
(dp2288
I141493
g1281
ssI44087
(dp2289
I141493
g1282
ssI44326
(dp2290
I98343
g1984
ssI44603
(dp2291
I141493
g1283
ssI44747
(dp2292
I141493
g1284
ssI44855
(dp2293
I141493
g1285
ssI45065
(dp2294
I141493
g1286
ssI45383
(dp2295
I141493
g1287
ssI45596
(dp2296
I141493
g1288
ssI45772
(dp2297
I141493
g1289
ssI45816
(dp2298
I141493
g1290
ssI45930
(dp2299
I141493
g1291
ssI46035
(dp2300
I141493
g1292
ssI46063
(dp2301
I141493
g1293
ssI46074
(dp2302
I141493
g1294
ssI46128
(dp2303
I141493
g1295
ssI46208
(dp2304
I141493
g1296
ssI46268
(dp2305
I141493
g1297
ssI46288
(dp2306
I141493
g1298
ssI46405
(dp2307
I141493
g1299
ssI46550
(dp2308
I141493
g1300
ssI46645
(dp2309
I141493
g1301
ssI46977
(dp2310
I141493
g1302
ssI47048
(dp2311
I141493
g1303
ssI47345
(dp2312
I141493
g1304
ssI47687
(dp2313
I141493
g1305
ssI47708
(dp2314
I141493
g1306
ssI47917
(dp2315
I141493
g1307
ssI48137
(dp2316
I141493
g1308
ssI48184
(dp2317
I141493
g1309
ssI48309
(dp2318
I141493
g1310
ssI48554
(dp2319
I141493
g1311
ssI48668
(dp2320
I141493
g1312
ssI48721
(dp2321
I141493
g1313
ssI48850
(dp2322
I98343
g1985
ssI49208
(dp2323
I141493
g1314
ssI49336
(dp2324
I141493
g1315
ssI49371
(dp2325
I141493
g1316
ssI49602
(dp2326
I141493
g1317
ssI49634
(dp2327
I141493
g1318
ssI49655
(dp2328
I141493
g1319
ssI49886
(dp2329
I141493
g1320
ssI50129
(dp2330
I141493
g1321
ssI50158
(dp2331
I141493
g1322
ssI50511
(dp2332
I141493
g1323
ssI50592
(dp2333
I141493
g1324
ssI50655
(dp2334
I141493
g1325
ssI50712
(dp2335
I141493
g1326
ssI50881
(dp2336
I141493
g1327
ssI51130
(dp2337
I141493
g1328
ssI51176
(dp2338
I141493
g1329
ssI51199
(dp2339
I141493
g1330
ssI51545
(dp2340
I141493
g1331
ssI51652
(dp2341
I141493
g1332
ssI51665
(dp2342
I141493
g1333
ssI51721
(dp2343
I141493
g1334
ssI51733
(dp2344
I141493
g1335
ssI52011
(dp2345
I141493
g1336
ssI52154
(dp2346
I141493
g1337
ssI52199
(dp2347
I141493
g1338
ssI52205
(dp2348
I141493
g1339
ssI52338
(dp2349
I141493
g1340
ssI52363
(dp2350
I141493
g1341
ssI52517
(dp2351
I141493
g1342
ssI52547
(dp2352
I141493
g1343
ssI52703
(dp2353
I141493
g1344
ssI52906
(dp2354
I141493
g1345
ssI53021
(dp2355
I141493
g1346
ssI53087
(dp2356
I141493
g1347
ssI53279
(dp2357
I141493
g1348
ssI53281
(dp2358
I141493
g1349
ssI54013
(dp2359
I141493
g1350
ssI54087
(dp2360
I141493
g1351
ssI54230
(dp2361
I98343
g1986
ssI54557
(dp2362
I141493
g1352
ssI54642
(dp2363
I141493
g1353
ssI54774
(dp2364
I141493
g1354
ssI54848
(dp2365
I141493
g1355
ssI55012
(dp2366
I141493
g1356
ssI55045
(dp2367
I141493
g1357
ssI55069
(dp2368
I141493
g1358
ssI55177
(dp2369
I141493
g1359
ssI55343
(dp2370
I141493
g1360
ssI55505
(dp2371
I141493
g1361
ssI55541
(dp2372
I141493
g1362
ssI55675
(dp2373
I141493
g1363
ssI55748
(dp2374
I141493
g1364
ssI56252
(dp2375
I141493
g1365
ssI56720
(dp2376
I141493
g1366
ssI56759
(dp2377
I141493
g1367
ssI56877
(dp2378
I141493
g1368
ssI56936
(dp2379
I141493
g1369
ssI57182
(dp2380
I141493
g1370
ssI57234
(dp2381
I141493
g1371
ssI57565
(dp2382
I141493
g1372
ssI57603
(dp2383
I141493
g1373
ssI58126
(dp2384
I141493
g1374
ssI58134
(dp2385
I141493
g1375
ssI58264
(dp2386
I141493
g1376
ssI58365
(dp2387
I141493
g1377
ssI58379
(dp2388
I141493
g1378
ssI58736
(dp2389
I98343
g1987
ssI59240
(dp2390
I141493
g1379
ssI59272
(dp2391
I141493
g1380
ssI59417
(dp2392
I141493
g1381
ssI59892
(dp2393
I98343
g1988
ssI60052
(dp2394
I141493
g1382
ssI60169
(dp2395
I141493
g1383
ssI60360
(dp2396
I141493
g1384
ssI60384
(dp2397
I141493
g1385
ssI61100
(dp2398
I141493
g1386
ssI61183
(dp2399
I141493
g1387
ssI61421
(dp2400
I141493
g1388
ssI61504
(dp2401
I141493
g1389
ssI61562
(dp2402
I141493
g1390
ssI61584
(dp2403
I141493
g1391
ssI61944
(dp2404
I141493
g1392
ssI62017
(dp2405
I141493
g1393
ssI62283
(dp2406
I141493
g1394
ssI62319
(dp2407
I141493
g1395
ssI62585
(dp2408
I141493
g1396
ssI62612
(dp2409
I141493
g1397
ssI62727
(dp2410
I141493
g1398
ssI62741
(dp2411
I141493
g1399
ssI62798
(dp2412
I141493
g1400
ssI62841
(dp2413
I141493
g1401
ssI62849
(dp2414
I141493
g1402
ssI63000
(dp2415
I141493
g1403
ssI63009
(dp2416
I141493
g1404
ssI63150
(dp2417
I98343
g1989
ssI63414
(dp2418
I141493
g1405
ssI63416
(dp2419
I141493
g1406
ssI63437
(dp2420
I141493
g1407
ssI63509
(dp2421
I141493
g1408
ssI63538
(dp2422
I141493
g1409
ssI63923
(dp2423
I141493
g1410
ssI63936
(dp2424
I141493
g1411
ssI64241
(dp2425
I141493
g1412
ssI64605
(dp2426
I141493
g1413
ssI64696
(dp2427
I141493
g1414
ssI64855
(dp2428
I141493
g1415
ssI64941
(dp2429
I141493
g1416
ssI65551
(dp2430
I141493
g1417
ssI65626
(dp2431
I141493
g1418
ssI65630
(dp2432
I141493
g1419
ssI65744
(dp2433
I141493
g1420
ssI65778
(dp2434
I141493
g1421
ssI65788
(dp2435
I141493
g1422
ssI65805
(dp2436
I141493
g1423
ssI66451
(dp2437
I141493
g1424
ssI66786
(dp2438
I141493
g1425
ssI66893
(dp2439
I98343
g1990
ssI66933
(dp2440
I141493
g1426
ssI67225
(dp2441
I141493
g1427
ssI67303
(dp2442
I141493
g1428
ssI67478
(dp2443
I141493
g1429
ssI67503
(dp2444
I141493
g1430
ssI67720
(dp2445
I141493
g1431
ssI67856
(dp2446
I141493
g1432
ssI67900
(dp2447
I141493
g1433
ssI68031
(dp2448
I141493
g1434
ssI68518
(dp2449
I141493
g1435
ssI68535
(dp2450
I141493
g1436
ssI68690
(dp2451
I141493
g1437
ssI68831
(dp2452
I141493
g1438
ssI68997
(dp2453
I141493
g1439
ssI69010
(dp2454
I141493
g1440
ssI69139
(dp2455
I141493
g1441
ssI69159
(dp2456
I141493
g1442
ssI69236
(dp2457
I141493
g1443
ssI69317
(dp2458
I141493
g1444
ssI69345
(dp2459
I141493
g1445
ssI69373
(dp2460
I141493
g1446
ssI69520
(dp2461
I141493
g1447
ssI69528
(dp2462
I141493
g1448
ssI69584
(dp2463
I141493
g1449
ssI69605
(dp2464
I141493
g1450
ssI69708
(dp2465
I141493
g1451
ssI69819
(dp2466
I141493
g1452
ssI69855
(dp2467
I141493
g1453
ssI69910
(dp2468
I141493
g1454
ssI70078
(dp2469
I141493
g1455
ssI70156
(dp2470
I141493
g1456
ssI70202
(dp2471
I141493
g1457
ssI70231
(dp2472
I141493
g1458
ssI70312
(dp2473
I141493
g1459
ssI70415
(dp2474
I141493
g1460
ssI70714
(dp2475
I141493
g1461
ssI70775
(dp2476
I141493
g1462
ssI70899
(dp2477
I141493
g1463
ssI71260
(dp2478
I141493
g1464
ssI71355
(dp2479
I141493
g1465
ssI71605
(dp2480
I141493
g1466
ssI71780
(dp2481
I141493
g1467
ssI71809
(dp2482
I141493
g1468
ssI72301
(dp2483
I141493
g1469
ssI72850
(dp2484
I141493
g1470
ssI73017
(dp2485
I141493
g1471
ssI73188
(dp2486
I141493
g1472
ssI73217
(dp2487
I141493
g1473
ssI73221
(dp2488
I141493
g1474
ssI73245
(dp2489
I141493
g1475
ssI73555
(dp2490
I141493
g1476
ssI73580
(dp2491
I141493
g1477
ssI73899
(dp2492
I141493
g1478
ssI73900
(dp2493
I141493
g1479
ssI74053
(dp2494
I141493
g1480
ssI74091
(dp2495
I141493
g1481
ssI74321
(dp2496
I141493
g1482
ssI74593
(dp2497
I141493
g1483
ssI74691
(dp2498
I141493
g1484
ssI74986
(dp2499
I141493
g1485
ssI75162
(dp2500
I141493
g1486
ssI75239
(dp2501
I141493
g1487
ssI75249
(dp2502
I141493
g1488
ssI75403
(dp2503
I98343
g1991
ssI75711
(dp2504
I141493
g1489
ssI76140
(dp2505
I141493
g1490
ssI76194
(dp2506
I141493
g1491
ssI76279
(dp2507
I141493
g1492
ssI76441
(dp2508
I141493
g1493
ssI76456
(dp2509
I141493
g1494
ssI76565
(dp2510
I141493
g1495
ssI77316
(dp2511
I141493
g1496
ssI77329
(dp2512
I141493
g1497
ssI77801
(dp2513
I141493
g1498
ssI77874
(dp2514
I141493
g1499
ssI78176
(dp2515
I141493
g1500
ssI78323
(dp2516
I141493
g1501
ssI78557
(dp2517
I141493
g1502
ssI78833
(dp2518
I141493
g1503
ssI78836
(dp2519
I141493
g1504
ssI78899
(dp2520
I98343
g1992
ssI79010
(dp2521
I141493
g1505
ssI79141
(dp2522
I141493
g1506
ssI79216
(dp2523
I141493
g1507
ssI79615
(dp2524
I141493
g1508
ssI79768
(dp2525
I141493
g1509
ssI79913
(dp2526
I141493
g1510
ssI80020
(dp2527
I141493
g1511
ssI80024
(dp2528
I141493
g1512
ssI80037
(dp2529
I141493
g1513
ssI80205
(dp2530
I141493
g1514
ssI80211
(dp2531
I141493
g1515
ssI80239
(dp2532
I141493
g1516
ssI80453
(dp2533
I141493
g1517
ssI80478
(dp2534
I141493
g1518
ssI80535
(dp2535
I141493
g1519
ssI80790
(dp2536
I141493
g1520
ssI80841
(dp2537
I141493
g1521
ssI80919
(dp2538
I141493
g1522
ssI80986
(dp2539
I141493
g1523
ssI81028
(dp2540
I141493
g1524
ssI81147
(dp2541
I141493
g1525
ssI81163
(dp2542
I141493
g1526
ssI81288
(dp2543
I141493
g1527
ssI81400
(dp2544
I141493
g1528
ssI81674
(dp2545
I141493
g1529
ssI81714
(dp2546
I141493
g1530
ssI81776
(dp2547
I141493
g1531
ssI82544
(dp2548
I141493
g1532
ssI82569
(dp2549
I141493
g1533
ssI82640
(dp2550
I141493
g1534
ssI82672
(dp2551
I141493
g1535
ssI82834
(dp2552
I141493
g1536
ssI83003
(dp2553
I141493
g1537
ssI83027
(dp2554
I141493
g1538
ssI83282
(dp2555
I141493
g1539
ssI83472
(dp2556
I141493
g1540
ssI83757
(dp2557
I141493
g1541
ssI84235
(dp2558
I141493
g1542
ssI84308
(dp2559
I141493
g1543
ssI84392
(dp2560
I141493
g1544
ssI84479
(dp2561
I141493
g1545
ssI84502
(dp2562
I141493
g1546
ssI84599
(dp2563
I141493
g1547
ssI84721
(dp2564
I141493
g1548
ssI84734
(dp2565
I141493
g1549
ssI84905
(dp2566
I141493
g1550
ssI85413
(dp2567
I141493
g1551
ssI85432
(dp2568
I141493
g1552
ssI85463
(dp2569
I141493
g1553
ssI85567
(dp2570
I141493
g1554
ssI85669
(dp2571
I141493
g1555
ssI85740
(dp2572
I141493
g1556
ssI85906
(dp2573
I141493
g1557
ssI85993
(dp2574
I141493
g1558
ssI86033
(dp2575
I141493
g1559
ssI86044
(dp2576
I141493
g1560
ssI86174
(dp2577
I141493
g1561
ssI86341
(dp2578
I141493
g1562
ssI86463
(dp2579
I141493
g1563
ssI86553
(dp2580
I141493
g1564
ssI86567
(dp2581
I141493
g1565
ssI86751
(dp2582
I141493
g1566
ssI86757
(dp2583
I141493
g1567
ssI87059
(dp2584
I141493
g1568
ssI87129
(dp2585
I141493
g1569
ssI87147
(dp2586
I141493
g1570
ssI87281
(dp2587
I141493
g1571
ssI87328
(dp2588
I141493
g1572
ssI87479
(dp2589
I141493
g1573
ssI87516
(dp2590
I98343
g1993
ssI87545
(dp2591
I141493
g1574
ssI87651
(dp2592
I141493
g1575
ssI87837
(dp2593
I141493
g1576
ssI87912
(dp2594
I141493
g1577
ssI88205
(dp2595
I141493
g1578
ssI88215
(dp2596
I141493
g1579
ssI88758
(dp2597
I141493
g1580
ssI88944
(dp2598
I141493
g1581
ssI89207
(dp2599
I141493
g1582
ssI89259
(dp2600
I141493
g1583
ssI89262
(dp2601
I141493
g1584
ssI89324
(dp2602
I141493
g1585
ssI89350
(dp2603
I141493
g1586
ssI89610
(dp2604
I141493
g1587
ssI89631
(dp2605
I141493
g1588
sI98343
g1994
ssI89781
(dp2606
I141493
g1589
ssI90139
(dp2607
I141493
g1590
ssI90148
(dp2608
I141493
g1591
sI98343
g1995
ssI90205
(dp2609
I141493
g1592
ssI90511
(dp2610
I141493
g1593
ssI90697
(dp2611
I98343
g1996
ssI91114
(dp2612
I141493
g1594
ssI91400
(dp2613
I141493
g1595
ssI91422
(dp2614
I141493
g1596
ssI91424
(dp2615
I141493
g1597
ssI91613
(dp2616
I141493
g1598
ssI91680
(dp2617
I141493
g1599
ssI91804
(dp2618
I141493
g1600
ssI92303
(dp2619
I141493
g1601
ssI92339
(dp2620
I141493
g1602
ssI92378
(dp2621
I141493
g1603
ssI92439
(dp2622
I141493
g1604
ssI92614
(dp2623
I141493
g1605
ssI92743
(dp2624
I141493
g1606
ssI92822
(dp2625
I141493
g1607
ssI93147
(dp2626
I141493
g1608
ssI93358
(dp2627
I141493
g1609
ssI93407
(dp2628
I141493
g1610
ssI93529
(dp2629
I141493
g1611
ssI93652
(dp2630
I141493
g1612
ssI93720
(dp2631
I141493
g1613
ssI93732
(dp2632
I141493
g1614
ssI94002
(dp2633
I141493
g1615
ssI94074
(dp2634
I141493
g1616
ssI94799
(dp2635
I141493
g1617
ssI94957
(dp2636
I141493
g1618
ssI94974
(dp2637
I141493
g1619
ssI95145
(dp2638
I141493
g1620
ssI95309
(dp2639
I141493
g1621
ssI95505
(dp2640
I141493
g1622
ssI95567
(dp2641
I141493
g1623
ssI95683
(dp2642
I141493
g1624
ssI95697
(dp2643
I98343
g1997
ssI95914
(dp2644
I98343
g1998
ssI95963
(dp2645
I141493
g1625
ssI96169
(dp2646
I141493
g1626
ssI96309
(dp2647
I141493
g1627
ssI96525
(dp2648
I141493
g1628
ssI96638
(dp2649
I141493
g1629
ssI96696
(dp2650
I141493
g1630
ssI97006
(dp2651
I141493
g1631
ssI97291
(dp2652
I141493
g1632
ssI97471
(dp2653
I141493
g1633
ssI97570
(dp2654
I141493
g1634
ssI97963
(dp2655
I141493
g1635
ssI98139
(dp2656
I141493
g1636
ssI98235
(dp2657
I141493
g1637
ssI98236
(dp2658
I141493
g1638
ssI145281
(dp2659
I98343
g1999
ssI113417
(dp2660
I98343
g2000
ssI124827
(dp2661
I98343
g2001
ssI122269
(dp2662
I98343
g2002
ssI140703
(dp2663
I98343
g2003
ssI116648
(dp2664
I98343
g2004
ssI157118
(dp2665
I98343
g2005
ssI123861
(dp2666
I98343
g2006
ssI106969
(dp2667
I98343
g2007
ssI151401
(dp2668
I98343
g2008
ssI143081
(dp2669
I98343
g2009
ssI125430
(dp2670
I98343
g2010
ssI155127
(dp2671
I98343
g2011
ssI159097
(dp2672
I98343
g2012
ssI98676
(dp2673
I141493
g1640
ssI98682
(dp2674
I141493
g1641
ssI99274
(dp2675
I141493
g1642
ssI99378
(dp2676
I141493
g1643
ssI99423
(dp2677
I141493
g1644
ssI99543
(dp2678
I141493
g1645
ssI99674
(dp2679
I141493
g1646
ssI99829
(dp2680
I141493
g1647
ssI100109
(dp2681
I141493
g1648
ssI100124
(dp2682
I141493
g1649
ssI100272
(dp2683
I141493
g1650
ssI100640
(dp2684
I141493
g1651
ssI100661
(dp2685
I141493
g1652
ssI100771
(dp2686
I141493
g1653
ssI100916
(dp2687
I141493
g1654
ssI101021
(dp2688
I141493
g1655
ssI101045
(dp2689
I141493
g1656
ssI101091
(dp2690
I141493
g1657
ssI101246
(dp2691
I141493
g1658
ssI101423
(dp2692
I141493
g1659
ssI101516
(dp2693
I141493
g1660
ssI101556
(dp2694
I141493
g1661
ssI102057
(dp2695
I141493
g1662
ssI102090
(dp2696
I141493
g1663
ssI102116
(dp2697
I141493
g1664
ssI102379
(dp2698
I141493
g1665
ssI102445
(dp2699
I141493
g1666
ssI102717
(dp2700
I141493
g1667
ssI102742
(dp2701
I141493
g1668
ssI102750
(dp2702
I141493
g1669
ssI102843
(dp2703
I141493
g1670
ssI103123
(dp2704
I141493
g1671
ssI103147
(dp2705
I141493
g1672
ssI103193
(dp2706
I141493
g1673
ssI103500
(dp2707
I141493
g1674
ssI103568
(dp2708
I141493
g1675
ssI103728
(dp2709
I141493
g1676
ssI103813
(dp2710
I141493
g1677
ssI104201
(dp2711
I141493
g1678
ssI104204
(dp2712
I141493
g1679
ssI104910
(dp2713
I141493
g1680
ssI105041
(dp2714
I141493
g1681
ssI105143
(dp2715
I141493
g1682
ssI105333
(dp2716
I141493
g1683
ssI105394
(dp2717
I141493
g1684
ssI105426
(dp2718
I141493
g1685
ssI105850
(dp2719
I141493
g1686
ssI106048
(dp2720
I141493
g1687
ssI106656
(dp2721
I141493
g1688
ssI106755
(dp2722
I141493
g1689
ssI106919
(dp2723
I141493
g1690
ssI107146
(dp2724
I141493
g1691
ssI107214
(dp2725
I141493
g1692
ssI107615
(dp2726
I141493
g1693
ssI108077
(dp2727
I141493
g1694
ssI108152
(dp2728
I141493
g1695
ssI108269
(dp2729
I141493
g1696
ssI108386
(dp2730
I141493
g1697
ssI108538
(dp2731
I141493
g1698
ssI108874
(dp2732
I141493
g1699
ssI108961
(dp2733
I141493
g1700
ssI108994
(dp2734
I141493
g1701
ssI109495
(dp2735
I141493
g1702
ssI109668
(dp2736
I141493
g1703
ssI109678
(dp2737
I141493
g1704
ssI109835
(dp2738
I141493
g1705
ssI110198
(dp2739
I141493
g1706
ssI110249
(dp2740
I141493
g1707
ssI110326
(dp2741
I141493
g1708
ssI110490
(dp2742
I141493
g1709
ssI110491
(dp2743
I141493
g1710
ssI110498
(dp2744
I141493
g1711
ssI111252
(dp2745
I141493
g1712
ssI111514
(dp2746
I141493
g1713
ssI111532
(dp2747
I141493
g1714
ssI111738
(dp2748
I141493
g1715
ssI112252
(dp2749
I141493
g1716
ssI112414
(dp2750
I141493
g1717
ssI112962
(dp2751
I141493
g1718
ssI113066
(dp2752
I141493
g1719
ssI113098
(dp2753
I141493
g1720
ssI113194
(dp2754
I141493
g1721
ssI113201
(dp2755
I141493
g1722
ssI113359
(dp2756
I141493
g1723
ssI113622
(dp2757
I141493
g1724
ssI113845
(dp2758
I141493
g1725
ssI114046
(dp2759
I141493
g1726
ssI114099
(dp2760
I141493
g1727
ssI114240
(dp2761
I141493
g1728
ssI114265
(dp2762
I141493
g1729
ssI114395
(dp2763
I141493
g1730
ssI114483
(dp2764
I141493
g1731
ssI114739
(dp2765
I141493
g1732
ssI114746
(dp2766
I141493
g1733
ssI114819
(dp2767
I141493
g1734
ssI115024
(dp2768
I141493
g1735
ssI115045
(dp2769
I141493
g1736
ssI115048
(dp2770
I141493
g1737
ssI115547
(dp2771
I141493
g1738
ssI115864
(dp2772
I141493
g1739
ssI115865
(dp2773
I141493
g1740
ssI116258
(dp2774
I141493
g1741
ssI116822
(dp2775
I141493
g1742
ssI116876
(dp2776
I141493
g1743
ssI116900
(dp2777
I141493
g1744
ssI116920
(dp2778
I141493
g1745
ssI117234
(dp2779
I141493
g1746
ssI117239
(dp2780
I141493
g1747
ssI117335
(dp2781
I141493
g1748
ssI117377
(dp2782
I141493
g1749
ssI117504
(dp2783
I141493
g1750
ssI117962
(dp2784
I141493
g1751
ssI118233
(dp2785
I141493
g1752
ssI118462
(dp2786
I141493
g1753
ssI118661
(dp2787
I141493
g1754
ssI118951
(dp2788
I141493
g1755
ssI119034
(dp2789
I141493
g1756
ssI119139
(dp2790
I141493
g1757
ssI119259
(dp2791
I141493
g1758
ssI119292
(dp2792
I141493
g1759
ssI119611
(dp2793
I141493
g1760
ssI119709
(dp2794
I141493
g1761
ssI119742
(dp2795
I141493
g1762
ssI119949
(dp2796
I141493
g1763
ssI119964
(dp2797
I141493
g1764
ssI119980
(dp2798
I141493
g1765
ssI120136
(dp2799
I141493
g1766
ssI120323
(dp2800
I141493
g1767
ssI120398
(dp2801
I141493
g1768
ssI120496
(dp2802
I141493
g1769
ssI120774
(dp2803
I141493
g1770
ssI121237
(dp2804
I141493
g1771
ssI121282
(dp2805
I141493
g1772
ssI121294
(dp2806
I141493
g1773
ssI121335
(dp2807
I141493
g1774
ssI121705
(dp2808
I141493
g1775
ssI121877
(dp2809
I141493
g1776
ssI121880
(dp2810
I141493
g1777
ssI122041
(dp2811
I141493
g1778
ssI122186
(dp2812
I141493
g1779
ssI122526
(dp2813
I141493
g1780
ssI122722
(dp2814
I141493
g1781
ssI122741
(dp2815
I141493
g1782
ssI123157
(dp2816
I141493
g1783
ssI123274
(dp2817
I141493
g1784
ssI123287
(dp2818
I141493
g1785
ssI124055
(dp2819
I141493
g1786
ssI124061
(dp2820
I141493
g1787
ssI124065
(dp2821
I141493
g1788
ssI124137
(dp2822
I141493
g1789
ssI124323
(dp2823
I141493
g1790
ssI125024
(dp2824
I141493
g1791
ssI125044
(dp2825
I141493
g1792
ssI125144
(dp2826
I141493
g1793
ssI125269
(dp2827
I141493
g1794
ssI125348
(dp2828
I141493
g1795
ssI125444
(dp2829
I141493
g1796
ssI126790
(dp2830
I141493
g1797
ssI127055
(dp2831
I141493
g1798
ssI127086
(dp2832
I141493
g1799
ssI127674
(dp2833
I141493
g1800
ssI127721
(dp2834
I141493
g1801
ssI128199
(dp2835
I141493
g1802
ssI128440
(dp2836
I141493
g1803
ssI129564
(dp2837
I141493
g1804
ssI129570
(dp2838
I141493
g1805
ssI129805
(dp2839
I141493
g1806
ssI129849
(dp2840
I141493
g1807
ssI129869
(dp2841
I141493
g1808
ssI129948
(dp2842
I141493
g1809
ssI131023
(dp2843
I141493
g1810
ssI131033
(dp2844
I141493
g1811
ssI131058
(dp2845
I141493
g1812
ssI131116
(dp2846
I141493
g1813
ssI131128
(dp2847
I141493
g1814
ssI131192
(dp2848
I141493
g1815
ssI131397
(dp2849
I141493
g1816
ssI131584
(dp2850
I141493
g1817
ssI131812
(dp2851
I141493
g1818
ssI132505
(dp2852
I141493
g1819
ssI132646
(dp2853
I141493
g1820
ssI132818
(dp2854
I141493
g1821
ssI132858
(dp2855
I141493
g1822
ssI133012
(dp2856
I141493
g1823
ssI133388
(dp2857
I141493
g1824
ssI133488
(dp2858
I141493
g1825
ssI133636
(dp2859
I141493
g1826
ssI133737
(dp2860
I141493
g1827
ssI133775
(dp2861
I141493
g1828
ssI133924
(dp2862
I141493
g1829
ssI134246
(dp2863
I141493
g1830
ssI134296
(dp2864
I141493
g1831
ssI134317
(dp2865
I141493
g1832
ssI134332
(dp2866
I141493
g1833
ssI134405
(dp2867
I141493
g1834
ssI134468
(dp2868
I141493
g1835
ssI134666
(dp2869
I141493
g1836
ssI134690
(dp2870
I141493
g1837
ssI134952
(dp2871
I141493
g1838
ssI135105
(dp2872
I141493
g1839
ssI135261
(dp2873
I141493
g1840
ssI135417
(dp2874
I141493
g1841
ssI135638
(dp2875
I141493
g1842
ssI135656
(dp2876
I141493
g1843
ssI136249
(dp2877
I141493
g1844
ssI136365
(dp2878
I141493
g1845
ssI136561
(dp2879
I141493
g1846
ssI136653
(dp2880
I141493
g1847
ssI136670
(dp2881
I141493
g1848
ssI136819
(dp2882
I141493
g1849
ssI137126
(dp2883
I141493
g1850
ssI137406
(dp2884
I141493
g1851
ssI137445
(dp2885
I141493
g1852
ssI137623
(dp2886
I141493
g1853
ssI137945
(dp2887
I141493
g1854
ssI138216
(dp2888
I141493
g1855
ssI138305
(dp2889
I141493
g1856
ssI139202
(dp2890
I141493
g1857
ssI139226
(dp2891
I141493
g1858
ssI139505
(dp2892
I141493
g1859
ssI140033
(dp2893
I141493
g1860
ssI140117
(dp2894
I141493
g1861
ssI140204
(dp2895
I141493
g1862
ssI140327
(dp2896
I141493
g1863
ssI140427
(dp2897
I141493
g1864
ssI140650
(dp2898
I141493
g1865
ssI140674
(dp2899
I141493
g1866
ssI140905
(dp2900
I141493
g1867
ssI140935
(dp2901
I141493
g1868
ssI141308
(dp2902
I141493
g1869
ssI165909
(dp2903
I141493
g1870
ssI149536
(dp2904
I141493
g1871
ssI157744
(dp2905
I141493
g1872
ssI165936
(dp2906
I141493
g1873
ssI155787
(dp2907
I141493
g1874
ssI143503
(dp2908
I141493
g1875
ssI159899
(dp2909
I141493
g1876
ssI168096
(dp2910
I141493
g1877
ssI153763
(dp2911
I141493
g1878
ssI145573
(dp2912
I141493
g1879
ssI143544
(dp2913
I141493
g1880
ssI141509
(dp2914
I141493
g1881
ssI151799
(dp2915
I141493
g1882
ssI141565
(dp2916
I141493
g1883
ssI145708
(dp2917
I141493
g1884
ssI147773
(dp2918
I141493
g1885
ssI166230
(dp2919
I141493
g1886
ssI149952
(dp2920
I141493
g1887
ssI160213
(dp2921
I141493
g1888
ssI162270
(dp2922
I141493
g1889
ssI158189
(dp2923
I141493
g1890
ssI145911
(dp2924
I141493
g1891
ssI152066
(dp2925
I141493
g1892
ssI152079
(dp2926
I141493
g1893
ssI143890
(dp2927
I141493
g1894
ssI166419
(dp2928
I141493
g1895
ssI145941
(dp2929
I141493
g1896
ssI152100
(dp2930
I141493
g1897
ssI150079
(dp2931
I141493
g1898
ssI164441
(dp2932
I141493
g1899
ssI156265
(dp2933
I141493
g1900
ssI141930
(dp2934
I141493
g1901
ssI164477
(dp2935
I141493
g1902
ssI148128
(dp2936
I141493
g1903
ssI164528
(dp2937
I141493
g1904
ssI142017
(dp2938
I141493
g1905
ssI156357
(dp2939
I141493
g1906
ssI144078
(dp2940
I141493
g1907
ssI146151
(dp2941
I141493
g1908
ssI146188
(dp2942
I141493
g1909
ssI144193
(dp2943
I141493
g1910
ssI156481
(dp2944
I141493
g1911
ssI156488
(dp2945
I141493
g1912
ssI166734
(dp2946
I141493
g1913
ssI164688
(dp2947
I141493
g1914
ssI164714
(dp2948
I141493
g1915
ssI144247
(dp2949
I141493
g1916
ssI158608
(dp2950
I141493
g1917
ssI152481
(dp2951
I141493
g1918
ssI156615
(dp2952
I141493
g1919
ssI144342
(dp2953
I141493
g1920
ssI158691
(dp2954
I141493
g1921
ssI154601
(dp2955
I141493
g1922
ssI142328
(dp2956
I141493
g1923
ssI162808
(dp2957
I141493
g1924
ssI154640
(dp2958
I141493
g1925
ssI160823
(dp2959
I141493
g1926
ssI150604
(dp2960
I141493
g1927
ssI164941
(dp2961
I141493
g1928
ssI142420
(dp2962
I141493
g1929
ssI162929
(dp2963
I141493
g1930
ssI142502
(dp2964
I141493
g1931
ssI154805
(dp2965
I141493
g1932
ssI150721
(dp2966
I141493
g1933
ssI142565
(dp2967
I141493
g1934
ssI152826
(dp2968
I141493
g1935
ssI156944
(dp2969
I141493
g1936
ssI148757
(dp2970
I141493
g1937
ssI157006
(dp2971
I141493
g1938
ssI161140
(dp2972
I141493
g1939
ssI150905
(dp2973
I141493
g1940
ssI161249
(dp2974
I141493
g1941
ssI161267
(dp2975
I141493
g1942
ssI146937
(dp2976
I141493
g1943
ssI144898
(dp2977
I141493
g1944
ssI142851
(dp2978
I141493
g1945
ssI161309
(dp2979
I141493
g1946
ssI155216
(dp2980
I141493
g1947
ssI163428
(dp2981
I141493
g1948
ssI165482
(dp2982
I141493
g1949
ssI151154
(dp2983
I141493
g1950
ssI151158
(dp2984
I141493
g1951
ssI149150
(dp2985
I141493
g1952
ssI163487
(dp2986
I141493
g1953
ssI151216
(dp2987
I141493
g1954
ssI151230
(dp2988
I141493
g1955
ssI167619
(dp2989
I141493
g1956
ssI149215
(dp2990
I141493
g1957
ssI165601
(dp2991
I141493
g1958
ssI161515
(dp2992
I141493
g1959
ssI155389
(dp2993
I141493
g1960
ssI153354
(dp2994
I141493
g1961
ssI149299
(dp2995
I141493
g1962
ssI167736
(dp2996
I141493
g1963
ssI155464
(dp2997
I141493
g1964
ssI167804
(dp2998
I141493
g1965
ssI157585
(dp2999
I141493
g1966
ssI151453
(dp3000
I141493
g1967
ssI167840
(dp3001
I141493
g1968
ssI165831
(dp3002
I141493
g1969
ssI145357
(dp3003
I141493
g1970
ssI167917
(dp3004
I141493
g1971
sssb.